target datalayout = "e-m:e-p270:32:32-p271:32:32-p272:64:64-i64:64-i128:128-f80:128-n8:16:32:64-S128"
target triple = "x86_64-pc-linux-gnu"

; Function Attrs: nounwind uwtable
define void @Abc_NtkDarConstr(ptr noundef %0, i32 noundef %1, i32 noundef %2, i32 noundef %3, i32 noundef %4, i32 noundef %5, i32 noundef %6) #0 {
  %8 = alloca ptr, align 8
  %9 = alloca i32, align 4
  %10 = alloca i32, align 4
  %11 = alloca i32, align 4
  %12 = alloca i32, align 4
  %13 = alloca i32, align 4
  %14 = alloca i32, align 4
  %15 = alloca ptr, align 8
  store ptr %0, ptr %8, align 8
  store i32 %1, ptr %9, align 4
  store i32 %2, ptr %10, align 4
  store i32 %3, ptr %11, align 4
  store i32 %4, ptr %12, align 4
  store i32 %5, ptr %13, align 4
  store i32 %6, ptr %14, align 4
  %16 = load ptr, ptr %8, align 8
  %17 = call ptr @Abc_NtkToDar(ptr noundef %16, i32 noundef 0, i32 noundef 1)
  store ptr %17, ptr %15, align 8
  %18 = load ptr, ptr %15, align 8
  %19 = icmp eq ptr %18, null
  br i1 %19, label %20, label %21

20:                                               ; preds = %7
  br label %36

21:                                               ; preds = %7
  %22 = load i32, ptr %12, align 4
  %23 = icmp ne i32 %22, 0
  br i1 %23, label %24, label %27

24:                                               ; preds = %21
  %25 = load ptr, ptr %15, align 8
  %26 = call i32 @Saig_ManDetectConstrTest(ptr noundef %25)
  br label %34

27:                                               ; preds = %21
  %28 = load ptr, ptr %15, align 8
  %29 = load i32, ptr %9, align 4
  %30 = load i32, ptr %10, align 4
  %31 = load i32, ptr %11, align 4
  %32 = load i32, ptr %13, align 4
  %33 = load i32, ptr %14, align 4
  call void @Saig_ManDetectConstrFuncTest(ptr noundef %28, i32 noundef %29, i32 noundef %30, i32 noundef %31, i32 noundef %32, i32 noundef %33)
  br label %34

34:                                               ; preds = %27, %24
  %35 = load ptr, ptr %15, align 8
  call void @Aig_ManStop(ptr noundef %35)
  br label %36

36:                                               ; preds = %34, %20
  ret void
}