; Function Attrs: nounwind uwtable
define void @Abc_NtkDarConstr(ptr noundef %0, i32 noundef %1, i32 noundef %2, i32 noundef %3, i32 noundef %4, i32 noundef %5, i32 noundef %6) local_unnamed_addr #1 {
  %8 = tail call ptr @Abc_NtkToDar(ptr noundef %0, i32 noundef 0, i32 noundef 1)
  %9 = icmp eq ptr %8, null
  br i1 %9, label %15, label %10

10:                                               ; preds = %7
  %.not = icmp eq i32 %4, 0
  br i1 %.not, label %13, label %11

11:                                               ; preds = %10
  %12 = tail call i32 @Saig_ManDetectConstrTest(ptr noundef nonnull %8) #19
  br label %14

13:                                               ; preds = %10
  tail call void @Saig_ManDetectConstrFuncTest(ptr noundef nonnull %8, i32 noundef %1, i32 noundef %2, i32 noundef %3, i32 noundef %5, i32 noundef %6) #19
  br label %14

14:                                               ; preds = %13, %11
  tail call void @Aig_ManStop(ptr noundef nonnull %8) #19
  br label %15

15:                                               ; preds = %7, %14
  ret void
}